target datalayout = "e-m:e-p270:32:32-p271:32:32-p272:64:64-i64:64-i128:128-f80:128-n8:16:32:64-S128"
target triple = "x86_64-unknown-linux-gnu"

%struct.b2Vec2 = type { float, float }
%struct.b2JointUserData = type { i64 }
%struct.b2RevoluteJointDef = type { %struct.b2JointDef.base, %struct.b2Vec2, %struct.b2Vec2, float, i8, float, float, i8, float, float }
%struct.b2JointDef.base = type <{ i32, [4 x i8], %struct.b2JointUserData, ptr, ptr, i8 }>
%class.b2RevoluteJoint = type { %class.b2Joint, %struct.b2Vec2, %struct.b2Vec2, %struct.b2Vec2, float, float, float, i8, float, float, i8, float, float, float, i32, i32, %struct.b2Vec2, %struct.b2Vec2, %struct.b2Vec2, %struct.b2Vec2, float, float, float, float, %struct.b2Mat22, float, float }
%class.b2Joint = type { ptr, i32, ptr, ptr, %struct.b2JointEdge, %struct.b2JointEdge, ptr, ptr, i32, i8, i8, %struct.b2JointUserData }
%struct.b2JointEdge = type { ptr, ptr, ptr, ptr }
%struct.b2Mat22 = type { %struct.b2Vec2, %struct.b2Vec2 }

; Function Attrs: mustprogress nounwind uwtable
define linkonce_odr hidden void @_ZN7b2JointD2Ev(ptr noundef nonnull align 8 dereferenceable(128) %this) unnamed_addr #2 comdat align 2 {
entry:
  %this.addr = alloca ptr, align 8
  store ptr %this, ptr %this.addr, align 8
  ret void
}

; Function Attrs: mustprogress nounwind uwtable
define linkonce_odr hidden void @_ZN6b2Vec27SetZeroEv(ptr noundef nonnull align 4 dereferenceable(8) %this) #2 comdat align 2 {
entry:
  %this.addr = alloca ptr, align 8
  store ptr %this, ptr %this.addr, align 8
  %this1 = load ptr, ptr %this.addr, align 8
  %x = getelementptr inbounds %struct.b2Vec2, ptr %this1, i32 0, i32 0
  store float 0.000000e+00, ptr %x, align 4
  %y = getelementptr inbounds %struct.b2Vec2, ptr %this1, i32 0, i32 1
  store float 0.000000e+00, ptr %y, align 4
  ret void
}

; Function Attrs: mustprogress uwtable
define void @_ZN15b2RevoluteJointC2EPK18b2RevoluteJointDef(ptr noundef nonnull align 8 dereferenceable(272) %this, ptr noundef %def) unnamed_addr #3 align 2 personality ptr @__gxx_personality_v0 {
entry:
  %this.addr = alloca ptr, align 8
  %def.addr = alloca ptr, align 8
  %exn.slot = alloca ptr, align 8
  %ehselector.slot = alloca i32, align 4
  store ptr %this, ptr %this.addr, align 8
  store ptr %def, ptr %def.addr, align 8
  %this1 = load ptr, ptr %this.addr, align 8
  %0 = load ptr, ptr %def.addr, align 8
  call void @_ZN7b2JointC2EPK10b2JointDef(ptr noundef nonnull align 8 dereferenceable(128) %this1, ptr noundef %0)
  store ptr getelementptr inbounds ({ [14 x ptr] }, ptr @_ZTV15b2RevoluteJoint, i32 0, i32 0, i32 2), ptr %this1, align 8
  %1 = load ptr, ptr %def.addr, align 8
  %localAnchorA = getelementptr inbounds %struct.b2RevoluteJointDef, ptr %1, i32 0, i32 1
  %m_localAnchorA2 = getelementptr inbounds %class.b2RevoluteJoint, ptr %this1, i32 0, i32 1
  call void @llvm.memcpy.p0.p0.i64(ptr align 8 %m_localAnchorA2, ptr align 4 %localAnchorA, i64 8, i1 false)
  %2 = load ptr, ptr %def.addr, align 8
  %localAnchorB = getelementptr inbounds %struct.b2RevoluteJointDef, ptr %2, i32 0, i32 2
  %m_localAnchorB3 = getelementptr inbounds %class.b2RevoluteJoint, ptr %this1, i32 0, i32 2
  call void @llvm.memcpy.p0.p0.i64(ptr align 8 %m_localAnchorB3, ptr align 4 %localAnchorB, i64 8, i1 false)
  %3 = load ptr, ptr %def.addr, align 8
  %referenceAngle = getelementptr inbounds %struct.b2RevoluteJointDef, ptr %3, i32 0, i32 3
  %4 = load float, ptr %referenceAngle, align 4
  %m_referenceAngle = getelementptr inbounds %class.b2RevoluteJoint, ptr %this1, i32 0, i32 11
  store float %4, ptr %m_referenceAngle, align 4
  %m_impulse4 = getelementptr inbounds %class.b2RevoluteJoint, ptr %this1, i32 0, i32 3
  invoke void @_ZN6b2Vec27SetZeroEv(ptr noundef nonnull align 4 dereferenceable(8) %m_impulse4)
          to label %invoke.cont unwind label %lpad

invoke.cont:                                      ; preds = %entry
  %m_axialMass = getelementptr inbounds %class.b2RevoluteJoint, ptr %this1, i32 0, i32 26
  store float 0.000000e+00, ptr %m_axialMass, align 4
  %m_motorImpulse = getelementptr inbounds %class.b2RevoluteJoint, ptr %this1, i32 0, i32 4
  store float 0.000000e+00, ptr %m_motorImpulse, align 8
  %m_lowerImpulse = getelementptr inbounds %class.b2RevoluteJoint, ptr %this1, i32 0, i32 5
  store float 0.000000e+00, ptr %m_lowerImpulse, align 4
  %m_upperImpulse = getelementptr inbounds %class.b2RevoluteJoint, ptr %this1, i32 0, i32 6
  store float 0.000000e+00, ptr %m_upperImpulse, align 8
  %5 = load ptr, ptr %def.addr, align 8
  %lowerAngle = getelementptr inbounds %struct.b2RevoluteJointDef, ptr %5, i32 0, i32 5
  %6 = load float, ptr %lowerAngle, align 4
  %m_lowerAngle = getelementptr inbounds %class.b2RevoluteJoint, ptr %this1, i32 0, i32 12
  store float %6, ptr %m_lowerAngle, align 8
  %7 = load ptr, ptr %def.addr, align 8
  %upperAngle = getelementptr inbounds %struct.b2RevoluteJointDef, ptr %7, i32 0, i32 6
  %8 = load float, ptr %upperAngle, align 8
  %m_upperAngle = getelementptr inbounds %class.b2RevoluteJoint, ptr %this1, i32 0, i32 13
  store float %8, ptr %m_upperAngle, align 4
  %9 = load ptr, ptr %def.addr, align 8
  %maxMotorTorque = getelementptr inbounds %struct.b2RevoluteJointDef, ptr %9, i32 0, i32 9
  %10 = load float, ptr %maxMotorTorque, align 4
  %m_maxMotorTorque = getelementptr inbounds %class.b2RevoluteJoint, ptr %this1, i32 0, i32 8
  store float %10, ptr %m_maxMotorTorque, align 8
  %11 = load ptr, ptr %def.addr, align 8
  %motorSpeed = getelementptr inbounds %struct.b2RevoluteJointDef, ptr %11, i32 0, i32 8
  %12 = load float, ptr %motorSpeed, align 8
  %m_motorSpeed = getelementptr inbounds %class.b2RevoluteJoint, ptr %this1, i32 0, i32 9
  store float %12, ptr %m_motorSpeed, align 4
  %13 = load ptr, ptr %def.addr, align 8
  %enableLimit = getelementptr inbounds %struct.b2RevoluteJointDef, ptr %13, i32 0, i32 4
  %14 = load i8, ptr %enableLimit, align 8
  %tobool = trunc i8 %14 to i1
  %m_enableLimit = getelementptr inbounds %class.b2RevoluteJoint, ptr %this1, i32 0, i32 10
  %frombool = zext i1 %tobool to i8
  store i8 %frombool, ptr %m_enableLimit, align 8
  %15 = load ptr, ptr %def.addr, align 8
  %enableMotor = getelementptr inbounds %struct.b2RevoluteJointDef, ptr %15, i32 0, i32 7
  %16 = load i8, ptr %enableMotor, align 4
  %tobool5 = trunc i8 %16 to i1
  %m_enableMotor = getelementptr inbounds %class.b2RevoluteJoint, ptr %this1, i32 0, i32 7
  %frombool6 = zext i1 %tobool5 to i8
  store i8 %frombool6, ptr %m_enableMotor, align 4
  %m_angle = getelementptr inbounds %class.b2RevoluteJoint, ptr %this1, i32 0, i32 25
  store float 0.000000e+00, ptr %m_angle, align 8
  ret void

lpad:                                             ; preds = %entry
  %17 = landingpad { ptr, i32 }
          cleanup
  %18 = extractvalue { ptr, i32 } %17, 0
  store ptr %18, ptr %exn.slot, align 8
  %19 = extractvalue { ptr, i32 } %17, 1
  store i32 %19, ptr %ehselector.slot, align 4
  call void @_ZN7b2JointD2Ev(ptr noundef nonnull align 8 dereferenceable(128) %this1) #9
  br label %eh.resume

eh.resume:                                        ; preds = %lpad
  %exn = load ptr, ptr %exn.slot, align 8
  %sel = load i32, ptr %ehselector.slot, align 4
  %lpad.val = insertvalue { ptr, i32 } poison, ptr %exn, 0
  %lpad.val7 = insertvalue { ptr, i32 } %lpad.val, i32 %sel, 1
  resume { ptr, i32 } %lpad.val7
}