; Function Attrs: mustprogress uwtable
define void @_ZN15b2RevoluteJointC2EPK18b2RevoluteJointDef(ptr noundef nonnull align 8 dereferenceable(272) %this, ptr noundef %def) unnamed_addr #1 align 2 personality ptr @__gxx_personality_v0 {
entry:
  tail call void @_ZN7b2JointC2EPK10b2JointDef(ptr noundef nonnull align 8 dereferenceable(128) %this, ptr noundef %def)
  store ptr getelementptr inbounds ({ [14 x ptr] }, ptr @_ZTV15b2RevoluteJoint, i64 0, i32 0, i64 2), ptr %this, align 8
  %localAnchorA = getelementptr inbounds i8, ptr %def, i64 36
  %m_localAnchorA2 = getelementptr inbounds i8, ptr %this, i64 128
  %0 = load i64, ptr %localAnchorA, align 4
  store i64 %0, ptr %m_localAnchorA2, align 8
  %localAnchorB = getelementptr inbounds i8, ptr %def, i64 44
  %m_localAnchorB3 = getelementptr inbounds i8, ptr %this, i64 136
  %1 = load i64, ptr %localAnchorB, align 4
  store i64 %1, ptr %m_localAnchorB3, align 8
  %referenceAngle = getelementptr inbounds i8, ptr %def, i64 52
  %2 = load float, ptr %referenceAngle, align 4
  %m_referenceAngle = getelementptr inbounds i8, ptr %this, i64 180
  store float %2, ptr %m_referenceAngle, align 4
  %m_impulse4 = getelementptr inbounds i8, ptr %this, i64 144
  %m_axialMass = getelementptr inbounds i8, ptr %this, i64 268
  store float 0.000000e+00, ptr %m_axialMass, align 4
  %lowerAngle = getelementptr inbounds i8, ptr %def, i64 60
  tail call void @llvm.memset.p0.i64(ptr noundef nonnull align 8 dereferenceable(20) %m_impulse4, i8 0, i64 20, i1 false)
  %3 = load float, ptr %lowerAngle, align 4
  %m_lowerAngle = getelementptr inbounds i8, ptr %this, i64 184
  store float %3, ptr %m_lowerAngle, align 8
  %upperAngle = getelementptr inbounds i8, ptr %def, i64 64
  %4 = load float, ptr %upperAngle, align 8
  %m_upperAngle = getelementptr inbounds i8, ptr %this, i64 188
  store float %4, ptr %m_upperAngle, align 4
  %maxMotorTorque = getelementptr inbounds i8, ptr %def, i64 76
  %5 = load float, ptr %maxMotorTorque, align 4
  %m_maxMotorTorque = getelementptr inbounds i8, ptr %this, i64 168
  store float %5, ptr %m_maxMotorTorque, align 8
  %motorSpeed = getelementptr inbounds i8, ptr %def, i64 72
  %6 = load float, ptr %motorSpeed, align 8
  %m_motorSpeed = getelementptr inbounds i8, ptr %this, i64 172
  store float %6, ptr %m_motorSpeed, align 4
  %enableLimit = getelementptr inbounds i8, ptr %def, i64 56
  %7 = load i8, ptr %enableLimit, align 8
  %8 = and i8 %7, 1
  %m_enableLimit = getelementptr inbounds i8, ptr %this, i64 176
  store i8 %8, ptr %m_enableLimit, align 8
  %enableMotor = getelementptr inbounds i8, ptr %def, i64 68
  %9 = load i8, ptr %enableMotor, align 4
  %10 = and i8 %9, 1
  %m_enableMotor = getelementptr inbounds i8, ptr %this, i64 164
  store i8 %10, ptr %m_enableMotor, align 4
  %m_angle = getelementptr inbounds i8, ptr %this, i64 264
  store float 0.000000e+00, ptr %m_angle, align 8
  ret void
}